; Function Attrs: mustprogress uwtable
define void @_ZN6marisa8grimoire2io6Reader4openERSi(ptr noundef nonnull align 8 captures(none) dereferenceable(25) %0, ptr noundef nonnull align 8 dereferenceable(16) %1) local_unnamed_addr #8 align 2 personality ptr @__gxx_personality_v0 {
  %3 = alloca %"class.marisa::grimoire::io::Reader", align 8
  call void @llvm.lifetime.start.p0(i64 32, ptr nonnull %3) #19
  call void @_ZN6marisa8grimoire2io6ReaderC1Ev(ptr noundef nonnull align 8 dereferenceable(25) %3)
  %4 = getelementptr inbounds nuw i8, ptr %3, i64 16
  %5 = load ptr, ptr %0, align 8, !tbaa !27
  %6 = load ptr, ptr %3, align 8, !tbaa !27
  store ptr %6, ptr %0, align 8, !tbaa !27
  store ptr %5, ptr %3, align 8, !tbaa !27
  %7 = getelementptr inbounds nuw i8, ptr %0, i64 8
  %8 = getelementptr inbounds nuw i8, ptr %3, i64 8
  %9 = load i32, ptr %7, align 8, !tbaa !28
  %10 = load i32, ptr %8, align 8, !tbaa !28
  store i32 %10, ptr %7, align 8, !tbaa !28
  store i32 %9, ptr %8, align 8, !tbaa !28
  %11 = getelementptr inbounds nuw i8, ptr %0, i64 16
  %12 = load ptr, ptr %11, align 8, !tbaa !29
  store ptr %1, ptr %11, align 8, !tbaa !29
  store ptr %12, ptr %4, align 8, !tbaa !29
  %13 = getelementptr inbounds nuw i8, ptr %0, i64 24
  %14 = getelementptr inbounds nuw i8, ptr %3, i64 24
  %15 = load i8, ptr %13, align 8, !tbaa !30, !range !15, !noundef !16
  %16 = load i8, ptr %14, align 8, !tbaa !30, !range !15, !noundef !16
  store i8 %16, ptr %13, align 8, !tbaa !30
  store i8 %15, ptr %14, align 8, !tbaa !30
  call void @_ZN6marisa8grimoire2io6ReaderD1Ev(ptr noundef nonnull align 8 dereferenceable(25) %3) #19
  call void @llvm.lifetime.end.p0(i64 32, ptr nonnull %3) #19
  ret void
}